; Function Attrs: nounwind uwtable
define noalias noundef nonnull ptr @l_MonadExcept_ofExcept___at_Lean_Meta_SynthInstance_newSubgoal___spec__12(ptr noundef %0, ptr readnone captures(none) %1, ptr readnone captures(none) %2, ptr readnone captures(none) %3, ptr readnone captures(none) %4, ptr readnone captures(none) %5, ptr readnone captures(none) %6, ptr noundef %7) local_unnamed_addr #1 {
  %9 = ptrtoint ptr %0 to i64
  %10 = and i64 %9, 1
  %.not.i = icmp eq i64 %10, 0
  br i1 %.not.i, label %14, label %11

11:                                               ; preds = %8
  %12 = lshr i64 %9, 1
  %13 = trunc i64 %12 to i32
  br label %lean_obj_tag.exit

14:                                               ; preds = %8
  %15 = getelementptr i8, ptr %0, i64 4
  %.val.i = load i32, ptr %15, align 4
  %16 = lshr i32 %.val.i, 24
  br label %lean_obj_tag.exit

lean_obj_tag.exit:                                ; preds = %11, %14
  %.0.i = phi i32 [ %13, %11 ], [ %16, %14 ]
  %17 = icmp eq i32 %.0.i, 0
  %18 = getelementptr inbounds nuw i8, ptr %0, i64 8
  %19 = load ptr, ptr %18, align 8, !tbaa !9
  %20 = ptrtoint ptr %19 to i64
  %21 = and i64 %20, 1
  %.not23 = icmp eq i64 %21, 0
  br i1 %17, label %22, label %32

22:                                               ; preds = %lean_obj_tag.exit
  br i1 %.not23, label %23, label %lean_inc.exit16

23:                                               ; preds = %22
  %.val.i17 = load i32, ptr %19, align 4, !tbaa !4
  %24 = icmp sgt i32 %.val.i17, 0
  br i1 %24, label %25, label %27, !prof !11

25:                                               ; preds = %23
  %26 = add nuw i32 %.val.i17, 1
  store i32 %26, ptr %19, align 4, !tbaa !4
  br label %lean_inc.exit16

27:                                               ; preds = %23
  %.not.i18 = icmp eq i32 %.val.i17, 0
  br i1 %.not.i18, label %lean_inc.exit16, label %28

28:                                               ; preds = %27
  tail call void @lean_inc_ref_cold(ptr noundef nonnull %19) #7
  br label %lean_inc.exit16

lean_inc.exit16:                                  ; preds = %28, %27, %25, %22
  tail call void @lean_inc_heartbeat() #7
  %29 = tail call noalias ptr @mi_malloc_small(i64 noundef 24) #7
  %30 = icmp eq ptr %29, null
  br i1 %30, label %31, label %lean_alloc_ctor.exit

31:                                               ; preds = %lean_inc.exit16
  tail call void @lean_internal_panic_out_of_memory() #8
  unreachable

32:                                               ; preds = %lean_obj_tag.exit
  br i1 %.not23, label %33, label %lean_inc.exit

33:                                               ; preds = %32
  %.val.i19 = load i32, ptr %19, align 4, !tbaa !4
  %34 = icmp sgt i32 %.val.i19, 0
  br i1 %34, label %35, label %37, !prof !11

35:                                               ; preds = %33
  %36 = add nuw i32 %.val.i19, 1
  store i32 %36, ptr %19, align 4, !tbaa !4
  br label %lean_inc.exit

37:                                               ; preds = %33
  %.not.i20 = icmp eq i32 %.val.i19, 0
  br i1 %.not.i20, label %lean_inc.exit, label %38

38:                                               ; preds = %37
  tail call void @lean_inc_ref_cold(ptr noundef nonnull %19) #7
  br label %lean_inc.exit

lean_inc.exit:                                    ; preds = %38, %37, %35, %32
  tail call void @lean_inc_heartbeat() #7
  %39 = tail call noalias ptr @mi_malloc_small(i64 noundef 24) #7
  %40 = icmp eq ptr %39, null
  br i1 %40, label %41, label %lean_alloc_ctor.exit

41:                                               ; preds = %lean_inc.exit
  tail call void @lean_internal_panic_out_of_memory() #8
  unreachable

lean_alloc_ctor.exit:                             ; preds = %lean_inc.exit, %lean_inc.exit16
  %.sink28 = phi ptr [ %29, %lean_inc.exit16 ], [ %39, %lean_inc.exit ]
  %.sink = phi i32 [ 16908312, %lean_inc.exit16 ], [ 131096, %lean_inc.exit ]
  %42 = getelementptr inbounds nuw i8, ptr %.sink28, i64 4
  store i32 1, ptr %.sink28, align 4, !tbaa !4
  store i32 %.sink, ptr %42, align 4
  %43 = getelementptr inbounds nuw i8, ptr %.sink28, i64 8
  store ptr %19, ptr %43, align 8, !tbaa !9
  %44 = getelementptr inbounds nuw i8, ptr %.sink28, i64 16
  store ptr %7, ptr %44, align 8, !tbaa !9
  ret ptr %.sink28
}